(dp1
S'output'
p2
S"<type 'exceptions.NameError'> global name 'PrimosCirculares' is not defined"
p3
sS'layer'
p4
S'/home/ivan/works/Mercado Libre/circularPrime/applications/circularPrimes/controllers/default.py'
p5
sS'code'
p6
S'# -*- coding: utf-8 -*-\n\n#from primos_circulares import PrimosCirculares\nimport primos_circulares\n\ndef index():\n\n    form = SQLFORM.factory(\n            Field(\'hasta\',\'integer\' ,requires=IS_NOT_EMPTY(),default=1000000),\n            )\n\n    if form.process().accepted:\n        response.flash = \'Formulario aceptado\'\n        hasta = form.vars.hasta\n        PrimosCirculares.buscarPrimosCirculares(hasta)\n    elif form.errors:\n        response.flash = \'El formulario tiene errores\'\n\n    return dict(form = form)\n\n\ndef user():\n    """\n    exposes:\n    http://..../[app]/default/user/login\n    http://..../[app]/default/user/logout\n    http://..../[app]/default/user/register\n    http://..../[app]/default/user/profile\n    http://..../[app]/default/user/retrieve_password\n    http://..../[app]/default/user/change_password\n    http://..../[app]/default/user/bulk_register\n    use @auth.requires_login()\n        @auth.requires_membership(\'group name\')\n        @auth.requires_permission(\'read\',\'table name\',record_id)\n    to decorate functions that need access control\n    also notice there is http://..../[app]/appadmin/manage/auth to allow administrator to manage users\n    """\n    return dict(form=auth())\n\n\n@cache.action()\ndef download():\n    """\n    allows downloading of uploaded files\n    http://..../[app]/default/download/[filename]\n    """\n    return response.download(request, db)\n\n\ndef call():\n    """\n    exposes services. for example:\n    http://..../[app]/default/call/jsonrpc\n    decorate with @services.jsonrpc the functions to expose\n    supports xml, json, xmlrpc, jsonrpc, amfrpc, rss, csv\n    """\n    return service()\n\n\n\nresponse._vars=response._caller(index)\n'
p7
sS'snapshot'
p8
(dp9
sS'traceback'
p10
S'Traceback (most recent call last):\n  File "/home/ivan/works/Mercado Libre/circularPrime/gluon/restricted.py", line 227, in restricted\n    exec ccode in environment\n  File "/home/ivan/works/Mercado Libre/circularPrime/applications/circularPrimes/controllers/default.py", line 61, in <module>\n  File "/home/ivan/works/Mercado Libre/circularPrime/gluon/globals.py", line 412, in <lambda>\n    self._caller = lambda f: f()\n  File "/home/ivan/works/Mercado Libre/circularPrime/applications/circularPrimes/controllers/default.py", line 15, in index\n    PrimosCirculares.buscarPrimosCirculares(hasta)\nNameError: global name \'PrimosCirculares\' is not defined\n'
p11
s.